$0100 c3 be 15   jmp $15be

$0103 45 72 72 6f 72 20 6f 70   Error op
$010b 65 6e 69 6e 67 20 66 69   ening fi
$0113 6c 65 3a 20 24 48 61 72   le: $Har
$011b 64 77 61 72 65 20 65 72   dware er
$0123 72 6f 72 0a 24 49 6e 76   ror.$Inv
$012b 61 6c 69 64 20 46 43 42   alid FCB
$0133 0a 24 45 78 69 74 20 74   .$Exit t
$013b 68 65 20 67 61 6d 65 2e   he game.
$0143 0a 24                     .$

$0145 22 91 01   shld $0191
$0148 e1         pop h
$0149 22 9b 01   shld $019b
$014c c3 61 01   jmp $0161

$014f 44 65 62 75 67 20 6d 6f   Debug mo
$0157 64 65 20 69 73 20 6f 6e   de is on
$015f 0a 24                     .$

$0161 0e 09      mvi c,$09
$0163 11 4f 01   lxi d,$014f
$0166 f3         di
$0167 cd 05 00   call $0005
$016a f3         di
$016b f3         di
$016c 31 00 00   lxi sp,$0000
$016f af         xra a
$0170 32 3c 00   sta $003c
$0173 3e 81      mvi a,$81
$0175 32 3e 00   sta $003e
$0178 0e 00      mvi c,$00
$017a f3         di
$017b cd 05 00   call $0005
$017e f3         di
$017f 3a 04 00   lda $0004
$0182 32 05 28   sta $2805
$0185 af         xra a
$0186 d3 10      out $10
$0188 af         xra a
$0189 d3 11      out $11
$018b 3e c3      mvi a,$c3
$018d 32 38 00   sta $0038
$0190 21 00 00   lxi h,$0000
$0193 22 39 00   shld $0039
$0196 31 fe 7f   lxi sp,$7ffe
$0199 fb         ei
$019a 21 00 00   lxi h,$0000
$019d e9         pchl
$019e 22 14 28   shld $2814
$01a1 32 09 02   sta $0209
$01a4 78         mov a,b
$01a5 32 0e 02   sta $020e
$01a8 79         mov a,c
$01a9 32 e4 01   sta $01e4
$01ac eb         xchg
$01ad cd 0f 02   call $020f
$01b0 0e 0f      mvi c,$0f
$01b2 11 5c 00   lxi d,$005c
$01b5 f3         di
$01b6 cd 05 00   call $0005
$01b9 f3         di
$01ba fe ff      cpi $ff
$01bc ca 48 02   jz $0248
$01bf 0e 14      mvi c,$14
$01c1 11 5c 00   lxi d,$005c
$01c4 f3         di
$01c5 cd 05 00   call $0005
$01c8 f3         di
$01c9 fe ff      cpi $ff
$01cb ca 62 02   jz $0262
$01ce fe 09      cpi $09
$01d0 ca 72 02   jz $0272
$01d3 fe 01      cpi $01
$01d5 ca ec 01   jz $01ec
$01d8 21 0e 02   lxi h,$020e
$01db 35         dcr m
$01dc f5         push psw
$01dd 11 80 00   lxi d,$0080
$01e0 c2 e5 01   jnz $01e5
$01e3 1e 00      mvi e,$00
$01e5 cd f7 01   call $01f7
$01e8 f1         pop psw
$01e9 c2 bf 01   jnz $01bf
$01ec 0e 10      mvi c,$10
$01ee 11 5c 00   lxi d,$005c
$01f1 f3         di
$01f2 cd 05 00   call $0005
$01f5 f3         di
$01f6 c9         ret
$01f7 af         xra a
$01f8 b3         ora e
$01f9 c8         rz
$01fa d5         push d
$01fb 2a 14 28   lhld $2814
$01fe eb         xchg
$01ff 19         dad d
$0200 22 14 28   shld $2814
$0203 eb         xchg
$0204 11 80 00   lxi d,$0080
$0207 c1         pop b
$0208 3e 00      mvi a,$00
$020a cd 25 03   call $0325
$020d c9         ret

$020e 00                        .

$020f 11 5d 00   lxi d,$005d
$0212 01 0b 00   lxi b,$000b
$0215 e5         push h
$0216 cd 1a 03   call $031a
$0219 e1         pop h
$021a e5         push h
$021b 11 06 28   lxi d,$2806
$021e 01 08 00   lxi b,$0008
$0221 cd ae 02   call $02ae
$0224 3e 2e      mvi a,$2e
$0226 12         stax d
$0227 13         inx d
$0228 e1         pop h
$0229 01 08 00   lxi b,$0008
$022c 09         dad b
$022d 01 03 00   lxi b,$0003
$0230 cd 1a 03   call $031a
$0233 3e 0a      mvi a,$0a
$0235 12         stax d
$0236 13         inx d
$0237 3e 24      mvi a,$24
$0239 12         stax d
$023a 3e 00      mvi a,$00
$023c 32 5c 00   sta $005c
$023f 21 68 00   lxi h,$0068
$0242 0e 18      mvi c,$18
$0244 cd df 02   call $02df
$0247 c9         ret
$0248 cd 92 02   call $0292
$024b 0e 09      mvi c,$09
$024d 11 03 01   lxi d,$0103
$0250 f3         di
$0251 cd 05 00   call $0005
$0254 f3         di
$0255 0e 09      mvi c,$09
$0257 11 06 28   lxi d,$2806
$025a f3         di
$025b cd 05 00   call $0005
$025e f3         di
$025f c3 00 00   jmp $0000
$0262 cd 92 02   call $0292
$0265 0e 09      mvi c,$09
$0267 11 18 01   lxi d,$0118
$026a f3         di
$026b cd 05 00   call $0005
$026e f3         di
$026f c3 00 00   jmp $0000
$0272 cd 92 02   call $0292
$0275 0e 09      mvi c,$09
$0277 11 28 01   lxi d,$0128
$027a f3         di
$027b cd 05 00   call $0005
$027e f3         di
$027f c3 00 00   jmp $0000
$0282 cd 92 02   call $0292
$0285 0e 09      mvi c,$09
$0287 11 35 01   lxi d,$0135
$028a f3         di
$028b cd 05 00   call $0005
$028e f3         di
$028f c3 00 00   jmp $0000
$0292 e1         pop h
$0293 22 ab 02   shld $02ab
$0296 f3         di
$0297 3e 80      mvi a,$80
$0299 32 3e 00   sta $003e
$029c 0e 00      mvi c,$00
$029e f3         di
$029f cd 05 00   call $0005
$02a2 f3         di
$02a3 fb         ei
$02a4 3a 05 28   lda $2805
$02a7 32 04 00   sta $0004
$02aa 21 00 00   lxi h,$0000
$02ad e9         pchl
$02ae 7e         mov a,m
$02af fe 20      cpi $20
$02b1 c8         rz
$02b2 12         stax d
$02b3 23         inx h
$02b4 13         inx d
$02b5 0b         dcx b
$02b6 79         mov a,c
$02b7 b0         ora b
$02b8 c2 ae 02   jnz $02ae
$02bb c9         ret
$02bc 21 01 00   lxi h,$0001
$02bf 7c         mov a,h
$02c0 1f         rar
$02c1 7d         mov a,l
$02c2 1f         rar
$02c3 ac         xra h
$02c4 67         mov h,a
$02c5 7d         mov a,l
$02c6 1f         rar
$02c7 7c         mov a,h
$02c8 1f         rar
$02c9 ad         xra l
$02ca 6f         mov l,a
$02cb ac         xra h
$02cc 67         mov h,a
$02cd 22 bd 02   shld $02bd
$02d0 c9         ret
$02d1 af         xra a
$02d2 32 02 28   sta $2802
$02d5 31 02 00   lxi sp,$0002
$02d8 d3 11      out $11
$02da 2a 03 28   lhld $2803
$02dd f9         sphl
$02de c9         ret
$02df 0e 00      mvi c,$00
$02e1 71         mov m,c
$02e2 2c         inr l
$02e3 bd         cmp l
$02e4 c2 e1 02   jnz $02e1
$02e7 c9         ret
$02e8 22 fb 02   shld $02fb
$02eb 21 00 00   lxi h,$0000
$02ee 39         dad sp
$02ef 22 03 28   shld $2803
$02f2 32 02 28   sta $2802
$02f5 31 02 00   lxi sp,$0002
$02f8 d3 11      out $11
$02fa 31 00 00   lxi sp,$0000
$02fd 01 00 00   lxi b,$0000
$0300 3e ff      mvi a,$ff
$0302 c5         push b
$0303 c5         push b
$0304 c5         push b
$0305 c5         push b
$0306 c5         push b
$0307 c5         push b
$0308 c5         push b
$0309 c5         push b
$030a c5         push b
$030b c5         push b
$030c c5         push b
$030d c5         push b
$030e c5         push b
$030f c5         push b
$0310 c5         push b
$0311 c5         push b
$0312 1b         dcx d
$0313 ba         cmp d
$0314 c2 02 03   jnz $0302
$0317 c3 d1 02   jmp $02d1
$031a 7e         mov a,m
$031b 12         stax d
$031c 23         inx h
$031d 13         inx d
$031e 0b         dcx b
$031f 79         mov a,c
$0320 b0         ora b
$0321 c2 1a 03   jnz $031a
$0324 c9         ret
$0325 09         dad b
$0326 22 33 03   shld $0333
$0329 21 00 00   lxi h,$0000
$032c 39         dad sp
$032d 22 03 28   shld $2803
$0330 d3 11      out $11
$0332 31 00 00   lxi sp,$0000
$0335 62         mov h,d
$0336 6b         mov l,e
$0337 09         dad b
$0338 7b         mov a,e
$0339 2b         dcx h
$033a 46         mov b,m
$033b 2b         dcx h
$033c 4e         mov c,m
$033d c5         push b
$033e bd         cmp l
$033f c2 39 03   jnz $0339
$0342 7a         mov a,d
$0343 bc         cmp h
$0344 c2 38 03   jnz $0338
$0347 af         xra a
$0348 d3 11      out $11
$034a 2a 03 28   lhld $2803
$034d f9         sphl
$034e c9         ret
$034f 7e         mov a,m
$0350 83         add e
$0351 77         mov m,a
$0352 23         inx h
$0353 7e         mov a,m
$0354 8a         adc d
$0355 77         mov m,a
$0356 23         inx h
$0357 0d         dcr c
$0358 c2 4f 03   jnz $034f
$035b c9         ret
$035c c9         ret
$035d 76         hlt
$035e 3e 88      mvi a,$88
$0360 d3 00      out $00
$0362 06 0f      mvi b,$0f
$0364 78         mov a,b
$0365 d3 02      out $02
$0367 7e         mov a,m
$0368 d3 0c      out $0c
$036a f5         push psw
$036b f1         pop psw
$036c f5         push psw
$036d f1         pop psw
$036e 2b         dcx h
$036f 05         dcr b
$0370 d3 0c      out $0c
$0372 f2 64 03   jp $0364
$0375 c9         ret
$0376 11 15 28   lxi d,$2815
$0379 01 10 00   lxi b,$0010
$037c cd 1a 03   call $031a
$037f 21 4f 04   lxi h,$044f
$0382 36 01      mvi m,$01
$0384 c9         ret

$0385 00 00                     ..

$0387 c3 8c 03   jmp $038c

$038a d6 03                     о.

$038c 3e 8a      mvi a,$8a
$038e d3 00      out $00
$0390 3e fe      mvi a,$fe
$0392 d3 03      out $03
$0394 db 02      in $02
$0396 4f         mov c,a
$0397 3e 7f      mvi a,$7f
$0399 d3 03      out $03
$039b db 02      in $02
$039d 17         ral
$039e 79         mov a,c
$039f 17         ral
$03a0 e6 07      ani $07
$03a2 c6 ce      adi $ce
$03a4 6f         mov l,a
$03a5 ce 03      aci $03
$03a7 95         sub l
$03a8 67         mov h,a
$03a9 5e         mov e,m
$03aa 3e f0      mvi a,$f0
$03ac a1         ana c
$03ad 0f         rrc
$03ae 0f         rrc
$03af 0f         rrc
$03b0 0f         rrc
$03b1 c6 be      adi $be
$03b3 6f         mov l,a
$03b4 ce 03      aci $03
$03b6 95         sub l
$03b7 67         mov h,a
$03b8 7e         mov a,m
$03b9 b3         ora e
$03ba 32 85 03   sta $0385
$03bd c9         ret

$03be 0f 0d 0b 09 0e 0c 0a 08   ........
$03c6 07 05 03 01 06 04 02 00   ........
$03ce f0 50 e0 40 b0 10 a0 00   ­PЯ@░.а.

$03d6 db 06      in $06
$03d8 f6 fe      ori $fe
$03da 5f         mov e,a
$03db 3e 8a      mvi a,$8a
$03dd d3 00      out $00
$03df 3e fe      mvi a,$fe
$03e1 d3 03      out $03
$03e3 db 02      in $02
$03e5 4f         mov c,a
$03e6 3e 7f      mvi a,$7f
$03e8 d3 03      out $03
$03ea db 02      in $02
$03ec 47         mov b,a
$03ed 3e 01      mvi a,$01
$03ef a1         ana c
$03f0 c2 f7 03   jnz $03f7
$03f3 3e 10      mvi a,$10
$03f5 a3         ana e
$03f6 5f         mov e,a
$03f7 3e 80      mvi a,$80
$03f9 a0         ana b
$03fa c2 01 04   jnz $0401
$03fd 3e 20      mvi a,$20
$03ff a3         ana e
$0400 5f         mov e,a
$0401 7b         mov a,e
$0402 2f         cma
$0403 32 85 03   sta $0385
$0406 c9         ret
$0407 2a 88 03   lhld $0388
$040a 7d         mov a,l
$040b fe 8c      cpi $8c
$040d c2 19 04   jnz $0419
$0410 7c         mov a,h
$0411 fe 03      cpi $03
$0413 c2 19 04   jnz $0419
$0416 3e 00      mvi a,$00
$0418 c9         ret
$0419 3e 01      mvi a,$01
$041b c9         ret
$041c 2a 88 03   lhld $0388
$041f eb         xchg
$0420 2a 8a 03   lhld $038a
$0423 22 88 03   shld $0388
$0426 eb         xchg
$0427 22 8a 03   shld $038a
$042a c0         rnz
$042b e3         xthl
$042c 22 a4 04   shld $04a4
$042f e1         pop h
$0430 22 9d 04   shld $049d
$0433 f5         push psw
$0434 e1         pop h
$0435 22 dc 7f   shld $7fdc
$0438 21 00 00   lxi h,$0000
$043b 39         dad sp
$043c 22 a0 04   shld $04a0
$043f c5         push b
$0440 af         xra a
$0441 d3 11      out $11
$0443 31 dc 7f   lxi sp,$7fdc
$0446 c5         push b
$0447 d5         push d
$0448 cd 8a 09   call $098a
$044b cd 87 03   call $0387
$044e 3e 00      mvi a,$00
$0450 b7         ora a
$0451 ca 5e 04   jz $045e
$0454 21 24 28   lxi h,$2824
$0457 cd 5e 03   call $035e
$045a af         xra a
$045b 32 4f 04   sta $044f
$045e 3e 88      mvi a,$88
$0460 d3 00      out $00
$0462 3a 25 28   lda $2825
$0465 d3 02      out $02
$0467 3a 26 28   lda $2826
$046a d3 03      out $03
$046c 3e 55      mvi a,$55
$046e 0f         rrc
$046f 32 6d 04   sta $046d
$0472 d2 79 04   jnc $0479
$0475 21 27 28   lxi h,$2827
$0478 34         inr m
$0479 21 a6 04   lxi h,$04a6
$047c 35         dcr m
$047d c2 92 04   jnz $0492
$0480 21 00 00   lxi h,$0000
$0483 7d         mov a,l
$0484 21 00 00   lxi h,$0000
$0487 22 81 04   shld $0481
$048a cd a7 04   call $04a7
$048d 21 a6 04   lxi h,$04a6
$0490 36 32      mvi m,$32
$0492 d1         pop d
$0493 c1         pop b
$0494 f1         pop psw
$0495 6f         mov l,a
$0496 3a 02 28   lda $2802
$0499 d3 11      out $11
$049b 7d         mov a,l
$049c 21 00 00   lxi h,$0000
$049f 31 00 00   lxi sp,$0000
$04a2 fb         ei
$04a3 c3 00 00   jmp $0000

$04a6 32                        2

$04a7 2a 56 05   lhld $0556
$04aa 22 ca 04   shld $04ca
$04ad 6f         mov l,a
$04ae 26 00      mvi h,$00
$04b0 11 c6 04   lxi d,$04c6
$04b3 cd e1 04   call $04e1
$04b6 21 c6 04   lxi h,$04c6
$04b9 01 eb bd   lxi b,$bdeb
$04bc cd 25 05   call $0525
$04bf 2a ca 04   lhld $04ca
$04c2 22 56 05   shld $0556
$04c5 c9         ret

$04c6 30 30 30 00 00 00         000...

$04cc c9         ret
$04cd 01 f0 d8   lxi b,$d8f0
$04d0 cd f6 04   call $04f6
$04d3 01 10 27   lxi b,$2710
$04d6 09         dad b
$04d7 01 18 fc   lxi b,$fc18
$04da cd f6 04   call $04f6
$04dd 01 e8 03   lxi b,$03e8
$04e0 09         dad b
$04e1 01 9c ff   lxi b,$ff9c
$04e4 cd f6 04   call $04f6
$04e7 01 64 00   lxi b,$0064
$04ea 09         dad b
$04eb 01 f6 ff   lxi b,$fff6
$04ee cd f6 04   call $04f6
$04f1 3e 3a      mvi a,$3a
$04f3 85         add l
$04f4 12         stax d
$04f5 c9         ret
$04f6 3e 2f      mvi a,$2f
$04f8 3c         inr a
$04f9 09         dad b
$04fa da f8 04   jc $04f8
$04fd 12         stax d
$04fe 13         inx d
$04ff c9         ret
$0500 6e         mov l,m
$0501 26 00      mvi h,$00
$0503 11 21 05   lxi d,$0521
$0506 c5         push b
$0507 cd e1 04   call $04e1
$050a c1         pop b
$050b 21 22 05   lxi h,$0522
$050e c3 25 05   jmp $0525
$0511 11 1f 05   lxi d,$051f
$0514 c5         push b
$0515 cd cd 04   call $04cd
$0518 c1         pop b
$0519 21 1f 05   lxi h,$051f
$051c c3 25 05   jmp $0525

$051f 30 30 30 30 30 00         00000.

$0525 5e         mov e,m
$0526 af         xra a
$0527 bb         cmp e
$0528 c8         rz
$0529 23         inx h
$052a 57         mov d,a
$052b e5         push h
$052c eb         xchg
$052d 29         dad h
$052e 29         dad h
$052f 29         dad h
$0530 11 e2 03   lxi d,$03e2
$0533 19         dad d
$0534 eb         xchg
$0535 21 00 00   lxi h,$0000
$0538 39         dad sp
$0539 22 56 05   shld $0556
$053c eb         xchg
$053d 50         mov d,b
$053e 59         mov e,c
$053f 4e         mov c,m
$0540 23         inx h
$0541 46         mov b,m
$0542 23         inx h
$0543 f9         sphl
$0544 eb         xchg
$0545 71         mov m,c
$0546 2d         dcr l
$0547 70         mov m,b
$0548 2d         dcr l
$0549 c1         pop b
$054a 71         mov m,c
$054b 2d         dcr l
$054c 70         mov m,b
$054d 2d         dcr l
$054e c1         pop b
$054f 71         mov m,c
$0550 2d         dcr l
$0551 70         mov m,b
$0552 2d         dcr l
$0553 c1         pop b
$0554 71         mov m,c
$0555 31 00 00   lxi sp,$0000
$0558 01 06 01   lxi b,$0106
$055b 09         dad b
$055c 44         mov b,h
$055d 4d         mov c,l
$055e e1         pop h
$055f c3 25 05   jmp $0525

$0562 7c 86 8a 92 a2 c2 7c 00   |єіњб┬|.
$056a 18 28 48 08 08 08 1c 00   .(H.....
$0572 7c 82 0c 70 80 80 fe 00   |ѓ.pђђ■.
$057a 7c 82 02 0c 02 82 7c 00   |ѓ...ѓ|.
$0582 1c 24 44 84 fe 04 04 00   .$Dё■...
$058a fe 80 80 fc 02 82 7c 00   ■ђђЧ.ѓ|.
$0592 7c 82 80 fc 82 82 7c 00   |ѓђЧѓѓ|.
$059a 7e 82 04 08 10 20 20 00   ~ѓ...  .
$05a2 7c 82 82 7c 82 82 7c 00   |ѓѓ|ѓѓ|.
$05aa 7c 82 82 fe 04 08 70 00   |ѓѓ■..p.

$05b2 7d         mov a,l
$05b3 32 12 06   sta $0612
$05b6 7c         mov a,h
$05b7 21 00 00   lxi h,$0000
$05ba 39         dad sp
$05bb 22 03 28   shld $2803
$05be 32 02 28   sta $2802
$05c1 31 02 00   lxi sp,$0002
$05c4 d3 11      out $11
$05c6 eb         xchg
$05c7 78         mov a,b
$05c8 32 64 06   sta $0664
$05cb 5e         mov e,m
$05cc af         xra a
$05cd b3         ora e
$05ce ca d1 02   jz $02d1
$05d1 23         inx h
$05d2 fe 6a      cpi $6a
$05d4 ca 5f 06   jz $065f
$05d7 fe ff      cpi $ff
$05d9 ca 58 06   jz $0658
$05dc 16 00      mvi d,$00
$05de 22 43 06   shld $0643
$05e1 79         mov a,c
$05e2 32 3d 06   sta $063d
$05e5 78         mov a,b
$05e6 32 3e 06   sta $063e
$05e9 eb         xchg
$05ea 29         dad h
$05eb 11 24 0c   lxi d,$0c24
$05ee 19         dad d
$05ef 5e         mov e,m
$05f0 23         inx h
$05f1 56         mov d,m
$05f2 eb         xchg
$05f3 f9         sphl
$05f4 60         mov h,b
$05f5 69         mov l,c
$05f6 c1         pop b
$05f7 09         dad b
$05f8 3e 07      mvi a,$07
$05fa a4         ana h
$05fb 87         add a
$05fc c6 48      adi $48
$05fe 5f         mov e,a
$05ff ce 06      aci $06
$0601 93         sub e
$0602 57         mov d,a
$0603 eb         xchg
$0604 7e         mov a,m
$0605 23         inx h
$0606 66         mov h,m
$0607 6f         mov l,a
$0608 22 1d 06   shld $061d
$060b 3e f8      mvi a,$f8
$060d a2         ana d
$060e 0f         rrc
$060f 0f         rrc
$0610 0f         rrc
$0611 c6 00      adi $00
$0613 57         mov d,a
$0614 c1         pop b
$0615 af         xra a
$0616 b0         ora b
$0617 c2 39 06   jnz $0639
$061a 69         mov l,c
$061b 60         mov h,b
$061c c3 00 00   jmp $0000
$061f 29         dad h
$0620 29         dad h
$0621 29         dad h
$0622 29         dad h
$0623 29         dad h
$0624 29         dad h
$0625 29         dad h
$0626 1a         ldax d
$0627 b4         ora h
$0628 12         stax d
$0629 14         inr d
$062a 1a         ldax d
$062b b5         ora l
$062c 12         stax d
$062d 15         dcr d
$062e 1c         inr e
$062f c3 14 06   jmp $0614
$0632 1a         ldax d
$0633 b1         ora c
$0634 12         stax d
$0635 1c         inr e
$0636 c3 14 06   jmp $0614
$0639 31 02 00   lxi sp,$0002
$063c 21 00 00   lxi h,$0000
$063f 09         dad b
$0640 44         mov b,h
$0641 4d         mov c,l
$0642 21 00 00   lxi h,$0000
$0645 c3 cb 05   jmp $05cb

$0648 32 06 1f 06 20 06 21 06   2... .!.
$0650 22 06 23 06 24 06 25 06   ".#.$.%.

$0658 3e e8      mvi a,$e8
$065a 81         add c
$065b 4f         mov c,a
$065c c3 63 06   jmp $0663
$065f 3e f4      mvi a,$f4
$0661 81         add c
$0662 4f         mov c,a
$0663 06 00      mvi b,$00
$0665 c3 cb 05   jmp $05cb
$0668 c9         ret

$0669 00                        .

$066a cd 42 08   call $0842
$066d cd fe 06   call $06fe
$0670 c9         ret
$0671 e5         push h
$0672 01 1c 00   lxi b,$001c
$0675 09         dad b
$0676 22 00 28   shld $2800
$0679 d5         push d
$067a cd 42 08   call $0842
$067d d1         pop d
$067e e1         pop h
$067f 0e 0e      mvi c,$0e
$0681 cd 4f 03   call $034f
$0684 c9         ret
$0685 cd b6 06   call $06b6
$0688 cd f7 06   call $06f7
$068b 3e f2      mvi a,$f2
$068d 32 fe 27   sta $27fe
$0690 3e ff      mvi a,$ff
$0692 32 ff 27   sta $27ff
$0695 cd 54 08   call $0854
$0698 c9         ret
$0699 3a 69 06   lda $0669
$069c b7         ora a
$069d c8         rz
$069e 21 ff 27   lxi h,$27ff
$06a1 7e         mov a,m
$06a2 3c         inr a
$06a3 e6 0f      ani $0f
$06a5 77         mov m,a
$06a6 fe 0e      cpi $0e
$06a8 d2 ae 06   jnc $06ae
$06ab cd 10 07   call $0710
$06ae 21 fe 27   lxi h,$27fe
$06b1 34         inr m
$06b2 cd c6 07   call $07c6
$06b5 c9         ret
$06b6 f3         di
$06b7 21 00 00   lxi h,$0000
$06ba 39         dad sp
$06bb 22 f3 06   shld $06f3
$06be 31 e0 27   lxi sp,$27e0
$06c1 2a 00 28   lhld $2800
$06c4 eb         xchg
$06c5 01 1a 00   lxi b,$001a
$06c8 21 4a 07   lxi h,$074a
$06cb e5         push h
$06cc 79         mov a,c
$06cd 0f         rrc
$06ce c6 19      adi $19
$06d0 67         mov h,a
$06d1 68         mov l,b
$06d2 e5         push h
$06d3 eb         xchg
$06d4 2b         dcx h
$06d5 56         mov d,m
$06d6 2b         dcx h
$06d7 5e         mov e,m
$06d8 d5         push d
$06d9 eb         xchg
$06da 21 e0 27   lxi h,$27e0
$06dd 09         dad b
$06de 22 e6 06   shld $06e6
$06e1 21 fc ff   lxi h,$fffc
$06e4 39         dad sp
$06e5 22 00 00   shld $0000
$06e8 21 f6 ff   lxi h,$fff6
$06eb 39         dad sp
$06ec f9         sphl
$06ed 0d         dcr c
$06ee 0d         dcr c
$06ef f2 c8 06   jp $06c8
$06f2 31 00 00   lxi sp,$0000
$06f5 fb         ei
$06f6 c9         ret
$06f7 21 e0 27   lxi h,$27e0
$06fa 22 fc 27   shld $27fc
$06fd c9         ret
$06fe 26 19      mvi h,$19
$0700 3e 27      mvi a,$27
$0702 2e f2      mvi l,$f2
$0704 36 00      mvi m,$00
$0706 2c         inr l
$0707 c2 04 07   jnz $0704
$070a 24         inr h
$070b bc         cmp h
$070c c2 02 07   jnz $0702
$070f c9         ret
$0710 21 00 00   lxi h,$0000
$0713 39         dad sp
$0714 22 47 07   shld $0747
$0717 2a fc 27   lhld $27fc
$071a 5e         mov e,m
$071b 23         inx h
$071c 56         mov d,m
$071d eb         xchg
$071e f9         sphl
$071f f1         pop psw
$0720 e1         pop h
$0721 d1         pop d
$0722 c1         pop b
$0723 c9         ret
$0724 c5         push b
$0725 d5         push d
$0726 e5         push h
$0727 f5         push psw
$0728 21 00 00   lxi h,$0000
$072b 39         dad sp
$072c eb         xchg
$072d 2a fc 27   lhld $27fc
$0730 73         mov m,e
$0731 23         inx h
$0732 72         mov m,d
$0733 23         inx h
$0734 3e fc      mvi a,$fc
$0736 bd         cmp l
$0737 c2 43 07   jnz $0743
$073a 3e 27      mvi a,$27
$073c bc         cmp h
$073d c2 43 07   jnz $0743
$0740 21 e0 27   lxi h,$27e0
$0743 22 fc 27   shld $27fc
$0746 31 00 00   lxi sp,$0000
$0749 c9         ret
$074a 21 ff ff   lxi h,$ffff
$074d e5         push h
$074e 23         inx h
$074f 3e 80      mvi a,$80
$0751 cd ac 07   call $07ac
$0754 f5         push psw
$0755 1a         ldax d
$0756 02         stax b
$0757 13         inx d
$0758 0c         inr c
$0759 3e 0f      mvi a,$0f
$075b a1         ana c
$075c cc 24 07   cz $0724
$075f 2b         dcx h
$0760 7c         mov a,h
$0761 b5         ora l
$0762 c2 55 07   jnz $0755
$0765 f1         pop psw
$0766 87         add a
$0767 da 8f 07   jc $078f
$076a cd ac 07   call $07ac
$076d eb         xchg
$076e e3         xthl
$076f e5         push h
$0770 09         dad b
$0771 60         mov h,b
$0772 eb         xchg
$0773 f5         push psw
$0774 1a         ldax d
$0775 02         stax b
$0776 1c         inr e
$0777 0c         inr c
$0778 3e 0f      mvi a,$0f
$077a a1         ana c
$077b cc 24 07   cz $0724
$077e 2b         dcx h
$077f 7c         mov a,h
$0780 b5         ora l
$0781 c2 74 07   jnz $0774
$0784 26 00      mvi h,$00
$0786 f1         pop psw
$0787 87         add a
$0788 eb         xchg
$0789 e1         pop h
$078a e3         xthl
$078b eb         xchg
$078c d2 51 07   jnc $0751
$078f cd ac 07   call $07ac
$0792 67         mov h,a
$0793 f1         pop psw
$0794 af         xra a
$0795 95         sub l
$0796 ca bd 07   jz $07bd
$0799 e5         push h
$079a 1f         rar
$079b 67         mov h,a
$079c 1a         ldax d
$079d 1f         rar
$079e 6f         mov l,a
$079f 13         inx d
$07a0 e3         xthl
$07a1 7c         mov a,h
$07a2 21 01 00   lxi h,$0001
$07a5 d4 b5 07   cnc $07b5
$07a8 23         inx h
$07a9 c3 6d 07   jmp $076d
$07ac 2c         inr l
$07ad 87         add a
$07ae c2 b4 07   jnz $07b4
$07b1 1a         ldax d
$07b2 13         inx d
$07b3 17         ral
$07b4 d8         rc
$07b5 29         dad h
$07b6 87         add a
$07b7 d2 ad 07   jnc $07ad
$07ba c3 ac 07   jmp $07ac
$07bd 2a 47 07   lhld $0747
$07c0 f9         sphl
$07c1 cd 85 06   call $0685
$07c4 f1         pop psw
$07c5 c9         ret
$07c6 1e 0d      mvi e,$0d
$07c8 4e         mov c,m
$07c9 06 26      mvi b,$26
$07cb 0a         ldax b
$07cc fe ff      cpi $ff
$07ce ca d7 07   jz $07d7
$07d1 7b         mov a,e
$07d2 d3 15      out $15
$07d4 0a         ldax b
$07d5 d3 14      out $14
$07d7 05         dcr b
$07d8 1d         dcr e
$07d9 7b         mov a,e
$07da d3 15      out $15
$07dc 0a         ldax b
$07dd d3 14      out $14
$07df 05         dcr b
$07e0 1d         dcr e
$07e1 7b         mov a,e
$07e2 d3 15      out $15
$07e4 0a         ldax b
$07e5 d3 14      out $14
$07e7 05         dcr b
$07e8 1d         dcr e
$07e9 7b         mov a,e
$07ea d3 15      out $15
$07ec 0a         ldax b
$07ed d3 14      out $14
$07ef 05         dcr b
$07f0 1d         dcr e
$07f1 7b         mov a,e
$07f2 d3 15      out $15
$07f4 0a         ldax b
$07f5 d3 14      out $14
$07f7 05         dcr b
$07f8 1d         dcr e
$07f9 7b         mov a,e
$07fa d3 15      out $15
$07fc 0a         ldax b
$07fd d3 14      out $14
$07ff 05         dcr b
$0800 1d         dcr e
$0801 7b         mov a,e
$0802 d3 15      out $15
$0804 0a         ldax b
$0805 d3 14      out $14
$0807 05         dcr b
$0808 1d         dcr e
$0809 7b         mov a,e
$080a d3 15      out $15
$080c 0a         ldax b
$080d d3 14      out $14
$080f 05         dcr b
$0810 1d         dcr e
$0811 7b         mov a,e
$0812 d3 15      out $15
$0814 0a         ldax b
$0815 d3 14      out $14
$0817 05         dcr b
$0818 1d         dcr e
$0819 7b         mov a,e
$081a d3 15      out $15
$081c 0a         ldax b
$081d d3 14      out $14
$081f 05         dcr b
$0820 1d         dcr e
$0821 7b         mov a,e
$0822 d3 15      out $15
$0824 0a         ldax b
$0825 d3 14      out $14
$0827 05         dcr b
$0828 1d         dcr e
$0829 7b         mov a,e
$082a d3 15      out $15
$082c 0a         ldax b
$082d d3 14      out $14
$082f 05         dcr b
$0830 1d         dcr e
$0831 7b         mov a,e
$0832 d3 15      out $15
$0834 0a         ldax b
$0835 d3 14      out $14
$0837 05         dcr b
$0838 1d         dcr e
$0839 7b         mov a,e
$083a d3 15      out $15
$083c 0a         ldax b
$083d d3 14      out $14
$083f 05         dcr b
$0840 1d         dcr e
$0841 c9         ret
$0842 3e 00      mvi a,$00
$0844 32 69 06   sta $0669
$0847 1e 0d      mvi e,$0d
$0849 7b         mov a,e
$084a d3 15      out $15
$084c af         xra a
$084d d3 14      out $14
$084f 1d         dcr e
$0850 f2 49 08   jp $0849
$0853 c9         ret
$0854 3e ff      mvi a,$ff
$0856 32 69 06   sta $0669
$0859 c9         ret
$085a 21 69 06   lxi h,$0669
$085d 7e         mov a,m
$085e 2f         cma
$085f 77         mov m,a
$0860 fe 00      cpi $00
$0862 ca 42 08   jz $0842
$0865 c3 54 08   jmp $0854
$0868 3a 69 06   lda $0669
$086b 4f         mov c,a
$086c c9         ret

$086d ff bc 02 c6 02 bc 02 bc    ╝.к.╝.╝
$0875 02 d6 06 d6 06 4c 04 e8   .о.о.L.У
$087d 03 4c 04 4c 04 a4 06 a4   .L.L.ц.ц
$0885 06 34 08 34 08 8e 12 8e   .4.4.ј.ј
$088d 12 76 16 76 16 00 00 a8   .v.v...е
$0895 de 5a c3 9c ae 9c ae d6   яZ├ю«ю«о
$089d 83 d6 83 4c 81 bc 34 f8   ЃоЃLЂ╝4Э
$08a5 2a f8 2a 4c 04 a4 06 64   *Э*L.ц.d
$08ad 19 34 08 bc 02 8e 12 bc   .4.╝.ј.╝
$08b5 02 4a 15 cc a6 c4 04 be   .J.╠д─.Й
$08bd 0a f4 10 4c 04 4c 04 64   .З.L.L.d
$08c5 19 43 2b 00 00 a8 de 5a   .C+..еяZ
$08cd c3 9c ae 9c ae d6 83 d6   ├ю«ю«оЃо
$08d5 83 4c 81 bc 34 f8 2a f8   ЃLЂ╝4Э*Э
$08dd 2a bc 02 4a 15 be 0a f4   *╝.J.Й.З
$08e5 10 64 19 43 2b 00 00 e2   .d.C+..Р
$08ed 00 f2 00 99 00 84 00 98   .Ы.Ў.ё.ў
$08f5 00 11 00 63 00 7d 00 34   ...c.}.4
$08fd 00 55 00 1e 00 01 00 10   .U......
$0905 00 a4 00 05 00 0d 00 01   .ц......
$090d 00 af 00 00 00            .»...

$0912 3e 36      mvi a,$36
$0914 d3 08      out $08
$0916 3e 76      mvi a,$76
$0918 d3 08      out $08
$091a c9         ret
$091b cd 12 09   call $0912
$091e 3e c9      mvi a,$c9
$0920 32 36 09   sta $0936
$0923 c9         ret
$0924 cd 1b 09   call $091b
$0927 3e ff      mvi a,$ff
$0929 32 6d 08   sta $086d
$092c c9         ret
$092d 22 37 09   shld $0937
$0930 3e 21      mvi a,$21
$0932 32 36 09   sta $0936
$0935 c9         ret
$0936 21 00 00   lxi h,$0000
$0939 3a 6d 08   lda $086d
$093c fe ff      cpi $ff
$093e c0         rnz
$093f 4e         mov c,m
$0940 23         inx h
$0941 7e         mov a,m
$0942 b1         ora c
$0943 ca 1b 09   jz $091b
$0946 3e 36      mvi a,$36
$0948 d3 08      out $08
$094a 79         mov a,c
$094b d3 0b      out $0b
$094d 7e         mov a,m
$094e 23         inx h
$094f d3 0b      out $0b
$0951 3e 76      mvi a,$76
$0953 d3 08      out $08
$0955 7e         mov a,m
$0956 23         inx h
$0957 d3 0a      out $0a
$0959 7e         mov a,m
$095a 23         inx h
$095b d3 0a      out $0a
$095d 22 37 09   shld $0937
$0960 c9         ret
$0961 cd 12 09   call $0912
$0964 3e 00      mvi a,$00
$0966 32 6d 08   sta $086d
$0969 c9         ret
$096a 3e ff      mvi a,$ff
$096c 32 6d 08   sta $086d
$096f c9         ret
$0970 21 6d 08   lxi h,$086d
$0973 7e         mov a,m
$0974 2f         cma
$0975 77         mov m,a
$0976 fe 00      cpi $00
$0978 ca 61 09   jz $0961
$097b c3 6a 09   jmp $096a
$097e 3a 6d 08   lda $086d
$0981 4f         mov c,a
$0982 c9         ret
$0983 cd 24 09   call $0924
$0986 cd 6a 06   call $066a
$0989 c9         ret
$098a cd 99 06   call $0699
$098d cd 36 09   call $0936
$0990 c9         ret
$0991 21 00 00   lxi h,$0000
$0994 39         dad sp
$0995 22 03 28   shld $2803
$0998 32 02 28   sta $2802
$099b 31 02 00   lxi sp,$0002
$099e d3 11      out $11
$09a0 60         mov h,b
$09a1 69         mov l,c
$09a2 f9         sphl
$09a3 c1         pop b
$09a4 eb         xchg
$09a5 59         mov e,c
$09a6 50         mov d,b
$09a7 7b         mov a,e
$09a8 0f         rrc
$09a9 5f         mov e,a
$09aa d2 00 0a   jnc $0a00
$09ad c1         pop b
$09ae 71         mov m,c
$09af 2c         inr l
$09b0 70         mov m,b
$09b1 2c         inr l
$09b2 c1         pop b
$09b3 71         mov m,c
$09b4 2c         inr l
$09b5 70         mov m,b
$09b6 2c         inr l
$09b7 c1         pop b
$09b8 71         mov m,c
$09b9 2c         inr l
$09ba 70         mov m,b
$09bb 2c         inr l
$09bc c1         pop b
$09bd 71         mov m,c
$09be 2c         inr l
$09bf 70         mov m,b
$09c0 2c         inr l
$09c1 c1         pop b
$09c2 71         mov m,c
$09c3 2c         inr l
$09c4 70         mov m,b
$09c5 2c         inr l
$09c6 c1         pop b
$09c7 71         mov m,c
$09c8 2c         inr l
$09c9 70         mov m,b
$09ca 2c         inr l
$09cb c1         pop b
$09cc 71         mov m,c
$09cd 2c         inr l
$09ce 70         mov m,b
$09cf 2c         inr l
$09d0 c1         pop b
$09d1 71         mov m,c
$09d2 2c         inr l
$09d3 70         mov m,b
$09d4 24         inr h
$09d5 c1         pop b
$09d6 71         mov m,c
$09d7 2d         dcr l
$09d8 70         mov m,b
$09d9 2d         dcr l
$09da c1         pop b
$09db 71         mov m,c
$09dc 2d         dcr l
$09dd 70         mov m,b
$09de 2d         dcr l
$09df c1         pop b
$09e0 71         mov m,c
$09e1 2d         dcr l
$09e2 70         mov m,b
$09e3 2d         dcr l
$09e4 c1         pop b
$09e5 71         mov m,c
$09e6 2d         dcr l
$09e7 70         mov m,b
$09e8 2d         dcr l
$09e9 c1         pop b
$09ea 71         mov m,c
$09eb 2d         dcr l
$09ec 70         mov m,b
$09ed 2d         dcr l
$09ee c1         pop b
$09ef 71         mov m,c
$09f0 2d         dcr l
$09f1 70         mov m,b
$09f2 2d         dcr l
$09f3 c1         pop b
$09f4 71         mov m,c
$09f5 2d         dcr l
$09f6 70         mov m,b
$09f7 2d         dcr l
$09f8 c1         pop b
$09f9 71         mov m,c
$09fa 2d         dcr l
$09fb 70         mov m,b
$09fc 25         dcr h
$09fd c3 41 0a   jmp $0a41
$0a00 af         xra a
$0a01 77         mov m,a
$0a02 2c         inr l
$0a03 77         mov m,a
$0a04 2c         inr l
$0a05 77         mov m,a
$0a06 2c         inr l
$0a07 77         mov m,a
$0a08 2c         inr l
$0a09 77         mov m,a
$0a0a 2c         inr l
$0a0b 77         mov m,a
$0a0c 2c         inr l
$0a0d 77         mov m,a
$0a0e 2c         inr l
$0a0f 77         mov m,a
$0a10 2c         inr l
$0a11 77         mov m,a
$0a12 2c         inr l
$0a13 77         mov m,a
$0a14 2c         inr l
$0a15 77         mov m,a
$0a16 2c         inr l
$0a17 77         mov m,a
$0a18 2c         inr l
$0a19 77         mov m,a
$0a1a 2c         inr l
$0a1b 77         mov m,a
$0a1c 2c         inr l
$0a1d 77         mov m,a
$0a1e 2c         inr l
$0a1f 77         mov m,a
$0a20 24         inr h
$0a21 77         mov m,a
$0a22 2d         dcr l
$0a23 77         mov m,a
$0a24 2d         dcr l
$0a25 77         mov m,a
$0a26 2d         dcr l
$0a27 77         mov m,a
$0a28 2d         dcr l
$0a29 77         mov m,a
$0a2a 2d         dcr l
$0a2b 77         mov m,a
$0a2c 2d         dcr l
$0a2d 77         mov m,a
$0a2e 2d         dcr l
$0a2f 77         mov m,a
$0a30 2d         dcr l
$0a31 77         mov m,a
$0a32 2d         dcr l
$0a33 77         mov m,a
$0a34 2d         dcr l
$0a35 77         mov m,a
$0a36 2d         dcr l
$0a37 77         mov m,a
$0a38 2d         dcr l
$0a39 77         mov m,a
$0a3a 2d         dcr l
$0a3b 77         mov m,a
$0a3c 2d         dcr l
$0a3d 77         mov m,a
$0a3e 2d         dcr l
$0a3f 77         mov m,a
$0a40 25         dcr h
$0a41 3e 20      mvi a,$20
$0a43 84         add h
$0a44 67         mov h,a
$0a45 15         dcr d
$0a46 c2 a7 09   jnz $09a7
$0a49 c3 d1 02   jmp $02d1
$0a4c 06 00      mvi b,$00
$0a4e 09         dad b
$0a4f 4e         mov c,m
$0a50 23         inx h
$0a51 46         mov b,m
$0a52 c9         ret
$0a53 7e         mov a,m
$0a54 e6 07      ani $07
$0a56 07         rlc
$0a57 c6 02      adi $02
$0a59 4f         mov c,a
$0a5a 7e         mov a,m
$0a5b 0f         rrc
$0a5c 0f         rrc
$0a5d 0f         rrc
$0a5e e6 1f      ani $1f
$0a60 c6 a0      adi $a0
$0a62 23         inx h
$0a63 23         inx h
$0a64 5e         mov e,m
$0a65 57         mov d,a
$0a66 c9         ret
$0a67 7e         mov a,m
$0a68 e6 06      ani $06
$0a6a c6 02      adi $02
$0a6c 4f         mov c,a
$0a6d 7e         mov a,m
$0a6e 0f         rrc
$0a6f 0f         rrc
$0a70 0f         rrc
$0a71 e6 1f      ani $1f
$0a73 c6 a0      adi $a0
$0a75 23         inx h
$0a76 23         inx h
$0a77 5e         mov e,m
$0a78 57         mov d,a
$0a79 c9         ret
$0a7a 0e 02      mvi c,$02
$0a7c 7e         mov a,m
$0a7d 0f         rrc
$0a7e 0f         rrc
$0a7f 0f         rrc
$0a80 e6 1f      ani $1f
$0a82 c6 a0      adi $a0
$0a84 23         inx h
$0a85 23         inx h
$0a86 5e         mov e,m
$0a87 57         mov d,a
$0a88 c9         ret
$0a89 22 aa 0a   shld $0aaa
$0a8c eb         xchg
$0a8d 7e         mov a,m
$0a8e 32 a8 0a   sta $0aa8
$0a91 23         inx h
$0a92 5e         mov e,m
$0a93 23         inx h
$0a94 56         mov d,m
$0a95 23         inx h
$0a96 7a         mov a,d
$0a97 b3         ora e
$0a98 c8         rz
$0a99 e5         push h
$0a9a eb         xchg
$0a9b cd a3 0a   call $0aa3
$0a9e e1         pop h
$0a9f c3 92 0a   jmp $0a92
$0aa2 c9         ret
$0aa3 7e         mov a,m
$0aa4 f5         push psw
$0aa5 23         inx h
$0aa6 23         inx h
$0aa7 0e 00      mvi c,$00
$0aa9 11 00 00   lxi d,$0000
$0aac cd 4f 03   call $034f
$0aaf f1         pop psw
$0ab0 b7         ora a
$0ab1 f2 a3 0a   jp $0aa3
$0ab4 c9         ret
$0ab5 af         xra a
$0ab6 32 02 28   sta $2802
$0ab9 31 02 00   lxi sp,$0002
$0abc d3 11      out $11
$0abe 2a 03 28   lhld $2803
$0ac1 f9         sphl
$0ac2 01 00 00   lxi b,$0000
$0ac5 11 00 00   lxi d,$0000
$0ac8 c9         ret
$0ac9 21 00 00   lxi h,$0000
$0acc 39         dad sp
$0acd 22 03 28   shld $2803
$0ad0 32 02 28   sta $2802
$0ad3 31 02 00   lxi sp,$0002
$0ad6 d3 11      out $11
$0ad8 60         mov h,b
$0ad9 69         mov l,c
$0ada f9         sphl
$0adb eb         xchg
$0adc c1         pop b
$0add 09         dad b
$0ade 22 c3 0a   shld $0ac3
$0ae1 c1         pop b
$0ae2 50         mov d,b
$0ae3 59         mov e,c
$0ae4 eb         xchg
$0ae5 22 c6 0a   shld $0ac6
$0ae8 eb         xchg
$0ae9 78         mov a,b
$0aea 0f         rrc
$0aeb da f5 0a   jc $0af5
$0aee 0f         rrc
$0aef da 57 0b   jc $0b57
$0af2 c3 de 0b   jmp $0bde
$0af5 07         rlc
$0af6 84         add h
$0af7 32 43 0b   sta $0b43
$0afa c6 20      adi $20
$0afc 57         mov d,a
$0afd c6 20      adi $20
$0aff 32 1a 0b   sta $0b1a
$0b02 c1         pop b
$0b03 7e         mov a,m
$0b04 a1         ana c
$0b05 b0         ora b
$0b06 77         mov m,a
$0b07 24         inr h
$0b08 c1         pop b
$0b09 7e         mov a,m
$0b0a a1         ana c
$0b0b b0         ora b
$0b0c 77         mov m,a
$0b0d 62         mov h,d
$0b0e c1         pop b
$0b0f 7e         mov a,m
$0b10 a1         ana c
$0b11 b0         ora b
$0b12 77         mov m,a
$0b13 25         dcr h
$0b14 c1         pop b
$0b15 7e         mov a,m
$0b16 a1         ana c
$0b17 b0         ora b
$0b18 77         mov m,a
$0b19 26 00      mvi h,$00
$0b1b c1         pop b
$0b1c 7e         mov a,m
$0b1d a1         ana c
$0b1e b0         ora b
$0b1f 77         mov m,a
$0b20 25         dcr h
$0b21 c1         pop b
$0b22 7e         mov a,m
$0b23 a1         ana c
$0b24 b0         ora b
$0b25 77         mov m,a
$0b26 2c         inr l
$0b27 1d         dcr e
$0b28 ca b5 0a   jz $0ab5
$0b2b c1         pop b
$0b2c 7e         mov a,m
$0b2d a1         ana c
$0b2e b0         ora b
$0b2f 77         mov m,a
$0b30 24         inr h
$0b31 c1         pop b
$0b32 7e         mov a,m
$0b33 a1         ana c
$0b34 b0         ora b
$0b35 77         mov m,a
$0b36 62         mov h,d
$0b37 c1         pop b
$0b38 7e         mov a,m
$0b39 a1         ana c
$0b3a b0         ora b
$0b3b 77         mov m,a
$0b3c 25         dcr h
$0b3d c1         pop b
$0b3e 7e         mov a,m
$0b3f a1         ana c
$0b40 b0         ora b
$0b41 77         mov m,a
$0b42 26 00      mvi h,$00
$0b44 c1         pop b
$0b45 7e         mov a,m
$0b46 a1         ana c
$0b47 b0         ora b
$0b48 77         mov m,a
$0b49 25         dcr h
$0b4a c1         pop b
$0b4b 7e         mov a,m
$0b4c a1         ana c
$0b4d b0         ora b
$0b4e 77         mov m,a
$0b4f 2c         inr l
$0b50 1d         dcr e
$0b51 c2 02 0b   jnz $0b02
$0b54 c3 b5 0a   jmp $0ab5
$0b57 3e 02      mvi a,$02
$0b59 84         add h
$0b5a 32 c4 0b   sta $0bc4
$0b5d c6 20      adi $20
$0b5f 57         mov d,a
$0b60 c6 20      adi $20
$0b62 32 89 0b   sta $0b89
$0b65 c1         pop b
$0b66 7e         mov a,m
$0b67 a1         ana c
$0b68 b0         ora b
$0b69 77         mov m,a
$0b6a 24         inr h
$0b6b c1         pop b
$0b6c 7e         mov a,m
$0b6d a1         ana c
$0b6e b0         ora b
$0b6f 77         mov m,a
$0b70 24         inr h
$0b71 c1         pop b
$0b72 7e         mov a,m
$0b73 a1         ana c
$0b74 b0         ora b
$0b75 77         mov m,a
$0b76 62         mov h,d
$0b77 c1         pop b
$0b78 7e         mov a,m
$0b79 a1         ana c
$0b7a b0         ora b
$0b7b 77         mov m,a
$0b7c 25         dcr h
$0b7d c1         pop b
$0b7e 7e         mov a,m
$0b7f a1         ana c
$0b80 b0         ora b
$0b81 77         mov m,a
$0b82 25         dcr h
$0b83 c1         pop b
$0b84 7e         mov a,m
$0b85 a1         ana c
$0b86 b0         ora b
$0b87 77         mov m,a
$0b88 26 00      mvi h,$00
$0b8a c1         pop b
$0b8b 7e         mov a,m
$0b8c a1         ana c
$0b8d b0         ora b
$0b8e 77         mov m,a
$0b8f 25         dcr h
$0b90 c1         pop b
$0b91 7e         mov a,m
$0b92 a1         ana c
$0b93 b0         ora b
$0b94 77         mov m,a
$0b95 25         dcr h
$0b96 c1         pop b
$0b97 7e         mov a,m
$0b98 a1         ana c
$0b99 b0         ora b
$0b9a 77         mov m,a
$0b9b 2c         inr l
$0b9c 1d         dcr e
$0b9d ca b5 0a   jz $0ab5
$0ba0 c1         pop b
$0ba1 7e         mov a,m
$0ba2 a1         ana c
$0ba3 b0         ora b
$0ba4 77         mov m,a
$0ba5 24         inr h
$0ba6 c1         pop b
$0ba7 7e         mov a,m
$0ba8 a1         ana c
$0ba9 b0         ora b
$0baa 77         mov m,a
$0bab 24         inr h
$0bac c1         pop b
$0bad 7e         mov a,m
$0bae a1         ana c
$0baf b0         ora b
$0bb0 77         mov m,a
$0bb1 62         mov h,d
$0bb2 c1         pop b
$0bb3 7e         mov a,m
$0bb4 a1         ana c
$0bb5 b0         ora b
$0bb6 77         mov m,a
$0bb7 25         dcr h
$0bb8 c1         pop b
$0bb9 7e         mov a,m
$0bba a1         ana c
$0bbb b0         ora b
$0bbc 77         mov m,a
$0bbd 25         dcr h
$0bbe c1         pop b
$0bbf 7e         mov a,m
$0bc0 a1         ana c
$0bc1 b0         ora b
$0bc2 77         mov m,a
$0bc3 26 00      mvi h,$00
$0bc5 c1         pop b
$0bc6 7e         mov a,m
$0bc7 a1         ana c
$0bc8 b0         ora b
$0bc9 77         mov m,a
$0bca 25         dcr h
$0bcb c1         pop b
$0bcc 7e         mov a,m
$0bcd a1         ana c
$0bce b0         ora b
$0bcf 77         mov m,a
$0bd0 25         dcr h
$0bd1 c1         pop b
$0bd2 7e         mov a,m
$0bd3 a1         ana c
$0bd4 b0         ora b
$0bd5 77         mov m,a
$0bd6 2c         inr l
$0bd7 1d         dcr e
$0bd8 c2 65 0b   jnz $0b65
$0bdb c3 b5 0a   jmp $0ab5
$0bde 7c         mov a,h
$0bdf 32 0d 0c   sta $0c0d
$0be2 c6 20      adi $20
$0be4 57         mov d,a
$0be5 c6 20      adi $20
$0be7 32 f6 0b   sta $0bf6
$0bea c1         pop b
$0beb 7e         mov a,m
$0bec a1         ana c
$0bed b0         ora b
$0bee 77         mov m,a
$0bef 62         mov h,d
$0bf0 c1         pop b
$0bf1 7e         mov a,m
$0bf2 a1         ana c
$0bf3 b0         ora b
$0bf4 77         mov m,a
$0bf5 26 00      mvi h,$00
$0bf7 c1         pop b
$0bf8 7e         mov a,m
$0bf9 a1         ana c
$0bfa b0         ora b
$0bfb 77         mov m,a
$0bfc 2c         inr l
$0bfd 1d         dcr e
$0bfe ca b5 0a   jz $0ab5
$0c01 c1         pop b
$0c02 7e         mov a,m
$0c03 a1         ana c
$0c04 b0         ora b
$0c05 77         mov m,a
$0c06 62         mov h,d
$0c07 c1         pop b
$0c08 7e         mov a,m
$0c09 a1         ana c
$0c0a b0         ora b
$0c0b 77         mov m,a
$0c0c 26 00      mvi h,$00
$0c0e c1         pop b
$0c0f 7e         mov a,m
$0c10 a1         ana c
$0c11 b0         ora b
$0c12 77         mov m,a
$0c13 2c         inr l
$0c14 1d         dcr e
$0c15 c2 ea 0b   jnz $0bea
$0c18 c3 b5 0a   jmp $0ab5

$0c1b 46 4f 4e 54 20 20 20 20   FONT    
$0c23 42 49 4e 50 04 62 04 78   BINP.b.x
$0c2b 04 8a 04 a0 04 b2 04 ca   .і.а.▓.╩
$0c33 04 e0 04 f2 04 08 05 24   .Я.Ы...$
$0c3b 05 36 05 48 05 5a 05 6c   .6.H.Z.l
$0c43 05 7e 05 98 05 ac 05 c2   .~.ў.г.┬
$0c4b 05 d4 05 ee 05 00 06 12   .н.Ь....
$0c53 06 24 06 36 06 48 06 f2   .$.6.H.Ы
$0c5b 00 f2 00 f2 00 f2 00 f2   .Ы.Ы.Ы.Ы
$0c63 00 f2 00 fa 00 54 01 f2   .Ы.Щ.T.Ы
$0c6b 00 f2 00 f2 00 1c 01 54   .Ы.Ы...T
$0c73 01 5e 01 74 01 f2 00 f2   .^.t.Ы.Ы
$0c7b 00 8a 01 94 01 9c 01 f2   .і.ћ.ю.Ы
$0c83 00 02 00 1a 00 32 00 4a   .....2.J
$0c8b 00 62 00 7a 00 92 00 aa   .b.z.њ.ф
$0c93 00 c2 00 da 00 a4 01 f2   .┬.┌.ц.Ы
$0c9b 00 f2 00 f2 00 f2 00 ba   .Ы.Ы.Ы.║
$0ca3 01 f2 00 d4 01 ec 01 04   .Ы.н.В..
$0cab 02 1c 02 34 02 4c 02 64   ...4.L.d
$0cb3 02 80 02 98 02 b0 02 c8   .ђ.ў.░.╚
$0cbb 02 e0 02 f8 02 12 03 2a   .Я.Э...*
$0cc3 03 42 03 5a 03 74 03 90   .B.Z.t.љ
$0ccb 03 a8 03 c0 03 d8 03 f0   .е.└.п.­
$0cd3 03 08 04 20 04 38 04 53   ... .8.S
$0cdb 4f 4e 47 30 31 20 20 42   ONG01  B
$0ce3 49 4e 00 00 4f 03 5a 04   IN..O.Z.
$0ceb 9d 07 67 09 3e 0f af 0f   Ю.g.>.».
$0cf3 e8 17 00 1a c6 1a 9c 1c   У...к.ю.
$0cfb 9d 1e 40 21 47 21 48 45   Ю.@!G!HE
$0d03 52 4f 5f 4c 20 20 42 49   RO_L  BI
$0d0b 4e 08 15 0d 5d 0d a5 0d   N...].Ц.
$0d13 00 00 11 00 02 00 bc 00   ......╝.
$0d1b 76 01 30 02 44 03 58 04   v.0.D.X.
$0d23 6c 05 80 06 11 00 02 00   l.ђ.....
$0d2b bc 00 76 01 30 02 44 03   ╝.v.0.D.
$0d33 58 04 6c 05 80 06 11 00   X.l.ђ...
$0d3b 02 00 bc 00 76 01 30 02   ..╝.v.0.
$0d43 44 03 58 04 6c 05 80 06   D.X.l.ђ.
$0d4b c9 ff 9a 16 54 17 0e 18   ╔ џ.T...
$0d53 c8 18 dc 19 f0 1a 04 1c   ╚.▄.­...
$0d5b 18 1d 11 00 3a 07 00 08   ....:...
$0d63 c6 08 8c 09 b2 0a d8 0b   к.ї.▓.п.
$0d6b fe 0c 24 0e 11 00 ea 0e   ■.$...Ж.
$0d73 b0 0f 76 10 3c 11 62 12   ░.v.<.b.
$0d7b 88 13 ae 14 d4 15 11 00   ѕ.«.н...
$0d83 9a 16 54 17 0e 18 c8 18   џ.T...╚.
$0d8b dc 19 f0 1a 04 1c 18 1d   ▄.­.....
$0d93 c9 ff d2 1d 8c 1e 46 1f   ╔ м.ї.F.
$0d9b 00 20 14 21 28 22 3c 23   . .!("<#
$0da3 50 24 11 00 0a 25 c4 25   P$...%─%
$0dab 7e 26 92 27 a6 28 ba 29   ~&њ'д(║)
$0db3 ce 2a 88 2b ff ff 42 2c   ╬*ѕ+  B,
$0dbb fc 2c b6 2d 70 2e 84 2f   Ч,Х-p.ё/
$0dc3 98 30 ac 31 c0 32 4c 56   ў0г1└2LV
$0dcb 30 5f 47 46 58 20 42 49   0_GFX BI
$0dd3 4e 65 52 5c 6b a4 6c b7   NeR\kцlи
$0ddb 6f 9b fd af 5f ff e2 62   oЏ§»_ Рb
$0de3 1f 02 00 00 00 86 00 00   .....є..
$0deb 00 0a 01 00 00 8e 01 00   .....ј..
$0df3 00 12 02 00 00 96 02 00   .....ќ..
$0dfb 00 1a 03 00 00 9e 03 00   .....ъ..
$0e03 00 22 04 00 00 a6 04 00   ."...д..
$0e0b 00 2a 05 00 00 8e 05 00   .*...ј..
$0e13 00 12 06 00 00 96 06 00   .....ќ..
$0e1b 00 1a 07 00 00 9e 07 00   .....ъ..
$0e23 00 22 08 00 00 86 08 00   ."...є..
$0e2b 00 0a 09 00 00 8e 09 00   .....ј..
$0e33 00 12 0a 00 00 96 0a 00   .....ќ..
$0e3b 00 1a 0b 00 00 9e 0b 00   .....ъ..
$0e43 00 22 0c 00 00 a6 0c 00   ."...д..
$0e4b 00 2a 0d 00 00 ae 0d 00   .*...«..
$0e53 00 32 0e 00 00 76 0e 00   .2...v..
$0e5b 00 da 0e 00 00 5e 0f 00   .┌...^..
$0e63 00 e2 0f 00 00 46 10 00   .Р...F..
$0e6b 00 ca 10 00 00 ee 10 00   .╩...Ь..
$0e73 00 72 11 00 00 76 11 00   .r...v..
$0e7b 00 fa 11 00 00 7e 12 00   .Щ...~..
$0e83 00 02 13 00 00 86 13 00   .....є..
$0e8b 00 0a 14 00 00 8e 14 00   .....ј..
$0e93 00 12 15 42 55 52 4e 45   ...BURNE
$0e9b 52 20 20 42 49 4e 04 ac   R  BIN.г
$0ea3 0e fc 0e 24 0f 4c 0f 00   .Ч.$.L..
$0eab 00 09 00 82 0d 24 0e c6   ...ѓ.$.к
$0eb3 0e b6 0f 09 00 58 10 fa   .Х...X.Щ
$0ebb 10 9c 11 8c 12 09 00 2e   .ю.ї....
$0ec3 13 d0 13 72 14 62 15 09   .л.r.b..
$0ecb 00 04 16 a6 16 48 17 38   ...д.H.8
$0ed3 18 09 00 da 18 7c 19 1e   ...┌.|..
$0edb 1a c0 1a 09 00 62 1b 04   .└...b..
$0ee3 1c a6 1c 48 1d 09 00 ea   .д.H...Ж
$0eeb 1d 8c 1e 2e 1f 1e 20 b9   .ї.... ╣
$0ef3 ff c0 20 62 21 04 22 a6    └ b!."д
$0efb 22 09 00 82 0d 24 0e c6   "..ѓ.$.к
$0f03 0e b6 0f 09 00 58 10 fa   .Х...X.Щ
$0f0b 10 9c 11 8c 12 09 00 2e   .ю.ї....
$0f13 13 d0 13 72 14 62 15 e1   .л.r.b.р
$0f1b ff 04 16 a6 16 48 17 38    ..д.H.8
$0f23 18 09 00 da 18 7c 19 1e   ...┌.|..
$0f2b 1a c0 1a 09 00 62 1b 04   .└...b..
$0f33 1c a6 1c 48 1d 09 00 ea   .д.H...Ж
$0f3b 1d 8c 1e 2e 1f 1e 20 e1   .ї.... р
$0f43 ff c0 20 62 21 04 22 a6    └ b!."д
$0f4b 22 09 00 02 00 b0 00 5e   "....░.^
$0f53 01 60 02 09 00 62 03 10   .`...b..
$0f5b 04 be 04 c0 05 09 00 c2   .Й.└...┬
$0f63 06 70 07 1e 08 20 09 e1   .p... .р
$0f6b ff 22 0a d0 0a 7e 0b 80    ".л.~.ђ
$0f73 0c 53 57 4f 52 44 20 20   .SWORD  
$0f7b 20 42 49 4e 08 88 0f 9a    BIN.ѕ.џ
$0f83 0f be 0f 00 00 ff ff 02   .Й...  .
$0f8b 00 08 00 0e 00 14 00 1a   ........
$0f93 00 20 00 26 00 2c 00 11   . .&.,..
$0f9b 00 32 00 f8 00 be 01 e4   .2.Э.Й.С
$0fa3 02 0a 04 30 05 56 06 7c   ...0.V.|
$0fab 07 ff ff a2 08 68 09 2e   .  б.h..
$0fb3 0a 54 0b 7a 0c a0 0d c6   .T.z.а.к
$0fbb 0e ec 0f 11 00 12 11 d8   .В.....п
$0fc3 11 9e 12 c4 13 ea 14 10   .ъ.─.Ж..
$0fcb 16 36 17 5c 18 ff ff 82   .6.\.  ѓ
$0fd3 19 48 1a 0e 1b 34 1c 5a   .H...4.Z
$0fdb 1d 80 1e a6 1f cc 20 56   .ђ.д.╠ V
$0fe3 46 58 20 20 20 20 20 42   FX     B
$0feb 49 4e f7 0f 0b 10 2b 10   INэ...+.
$0ff3 47 10 00 00 03 00 08 00   G.......
$0ffb 03 00 08 00 03 00 92 00   ......њ.
$1003 03 00 4c 01 ff ff 06 02   ..L.  ..
$100b 03 00 08 00 03 00 08 00   ........
$1013 03 00 92 00 03 00 4c 01   ..њ...L.
$101b 03 00 06 02 03 00 02 00   ........
$1023 03 00 02 00 e3 ff 02 00   ....с ..
$102b 03 00 c0 02 03 00 7a 03   ..└...z.
$1033 03 00 e2 04 03 00 40 04   ..Р...@.
$103b 03 00 e2 04 03 00 c0 02   ..Р...└.
$1043 ff ff e2 04 03 00 1a 06     Р.....
$104b 03 00 e0 06 f7 ff a6 07   ..Я.э д.
$1053 48 45 52 4f 5f 52 20 20   HERO_R  
$105b 42 49 4e 08 67 10 af 10   BIN.g.».
$1063 f7 10 00 00 11 00 02 00   э.......
$106b bc 00 76 01 30 02 44 03   ╝.v.0.D.
$1073 58 04 6c 05 80 06 11 00   X.l.ђ...
$107b 02 00 bc 00 76 01 30 02   ..╝.v.0.
$1083 44 03 58 04 6c 05 80 06   D.X.l.ђ.
$108b 11 00 02 00 bc 00 76 01   ....╝.v.
$1093 30 02 44 03 58 04 6c 05   0.D.X.l.
$109b 80 06 c9 ff 9a 16 54 17   ђ.╔ џ.T.
$10a3 0e 18 c8 18 dc 19 f0 1a   ..╚.▄.­.
$10ab 04 1c 18 1d 11 00 3a 07   ......:.
$10b3 00 08 c6 08 8c 09 b2 0a   ..к.ї.▓.
$10bb d8 0b fe 0c 24 0e 11 00   п.■.$...
$10c3 ea 0e b0 0f 76 10 3c 11   Ж.░.v.<.
$10cb 62 12 88 13 ae 14 d4 15   b.ѕ.«.н.
$10d3 11 00 9a 16 54 17 0e 18   ..џ.T...
$10db c8 18 dc 19 f0 1a 04 1c   ╚.▄.­...
$10e3 18 1d c9 ff d2 1d 8c 1e   ..╔ м.ї.
$10eb 46 1f 00 20 14 21 28 22   F.. .!("
$10f3 3c 23 50 24 11 00 0a 25   <#P$...%
$10fb c4 25 7e 26 38 27 f2 27   ─%~&8'Ы'
$1103 06 29 1a 2a 2e 2b ff ff   .).*.+  
$110b 42 2c fc 2c b6 2d 70 2e   B,Ч,Х-p.
$1113 84 2f 98 30 ac 31 c0 32   ё/ў0г1└2
$111b 4b 4e 49 47 48 54 20 20   KNIGHT  
$1123 42 49 4e 04 33 11 47 11   BIN.3.G.
$112b 6f 11 97 11 bf 11 00 00   o.Ќ.┐...
$1133 09 00 02 00 bc 00 76 01   ....╝.v.
$113b 8a 02 f5 ff 9e 03 58 04   і.ш ъ.X.
$1143 12 05 cc 05 09 00 e0 06   ..╠...Я.
$114b 8e 07 3c 08 3e 09 09 00   ј.<.>...
$1153 40 0a fa 0a b4 0b 6e 0c   @.Щ.┤.n.
$115b 09 00 28 0d e2 0d 9c 0e   ..(.Р.ю.
$1163 56 0f e1 ff 6a 10 18 11   V.р j...
$116b c6 11 c8 12 09 00 ca 13   к.╚...╩.
$1173 78 14 26 15 28 16 09 00   x.&.(...
$117b 2a 17 e4 17 9e 18 58 19   *.С.ъ.X.
$1183 09 00 12 1a cc 1a 86 1b   ....╠.є.
$118b 9a 1c e1 ff 54 1d 02 1e   џ.р T...
$1193 b0 1e b2 1f 09 00 b4 20   ░.▓...┤ 
$119b 62 21 64 22 66 23 09 00   b!d"f#..
$11a3 68 24 22 25 36 26 4a 27   h$"%6&J'
$11ab 09 00 04 28 be 28 d2 29   ...(Й(м)
$11b3 e6 2a e1 ff fa 2b a8 2c   Т*р Щ+е,
$11bb aa 2d ac 2e 09 00 ae 2f   ф-г...«/
$11c3 5c 30 0a 31 0c 32 09 00   \0.1.2..
$11cb 0e 33 c8 33 82 34 96 35   .3╚3ѓ4ќ5
$11d3 09 00 aa 36 64 37 1e 38   ..ф6d7.8
$11db 32 39 e1 ff 46 3a f4 3a   29р F:З:
$11e3 a2 3b a4 3c 53 4b 45 4c   б;ц<SKEL
$11eb 45 54 4f 4e 42 49 4e 04   ETONBIN.
$11f3 fb 11 0f 12 37 12 00 00   ч...7...
$11fb 09 00 02 00 bc 00 d0 01   ....╝.л.
$1203 e4 02 f5 ff f8 03 b2 04   С.ш Э.▓.
$120b c6 05 da 06 09 00 ee 07   к.┌...Ь.
$1213 a8 08 bc 09 d0 0a 09 00   е.╝.л...
$121b e4 0b 9e 0c b2 0d c6 0e   С.ъ.▓.к.
$1223 09 00 da 0f 94 10 a8 11   ..┌.ћ.е.
$122b bc 12 e1 ff d0 13 8a 14   ╝.р л.і.
$1233 9e 15 b2 16 09 00 c6 17   ъ.▓...к.
$123b 80 18 3a 19 4e 1a 09 00   ђ.:.N...
$1243 62 1b 1c 1c d6 1c ea 1d   b...о.Ж.
$124b 09 00 fe 1e b8 1f cc 20   ..■.И.╠ 
$1253 e0 21 e1 ff f4 22 ae 23   Я!р З"«#
$125b 68 24 7c 25 53 43 59 54   h$|%SCYT
$1263 48 45 20 20 42 49 4e 04   HE  BIN.
$126b 6f 12 00 00 09 00 02 00   o.......
$1273 44 00 86 00 c8 00 09 00   D.є.╚...
$127b 28 01 76 01 0c 02 a2 02   (.v...б.
$1283 09 00 f0 02 3e 03 8c 03   ..­.>.ї.
$128b da 03 e1 ff 4c 04 e2 04   ┌.р L.Р.
$1293 78 05 c6 05 53 4e 4f 57   x.к.SNOW
$129b 46 4c 41 4b 42 49 4e 04   FLAKBIN.
$12a3 a7 12 00 00 09 00 02 00   Д.......
$12ab 44 00 c2 00 40 01 09 00   D.┬.@...
$12b3 be 01 00 02 7e 02 fc 02   Й...~.Ч.
$12bb 09 00 7a 03 bc 03 fe 03   ..z.╝.■.
$12c3 7c 04 e1 ff be 01 00 02   |.р Й...
$12cb 7e 02 fc 02 54 4e 54 20   ~.Ч.TNT 
$12d3 20 20 20 20 42 49 4e 04       BIN.
$12db df 12 00 00 09 00 02 00   ▀.......
$12e3 4a 00 d4 00 5e 01 f5 ff   J.н.^.ш 
$12eb e8 01 3c 02 de 02 80 03   У.<.я.ђ.
$12f3 56 46 58 34 20 20 20 20   VFX4    
$12fb 42 49 4e 04 07 13 39 13   BIN...9.
$1303 bb 13 00 00 09 00 02 00   ╗.......
$130b 8c 00 16 01 a0 01 09 00   ї...а...
$1313 02 00 8c 00 16 01 a0 01   ..ї...а.
$131b 09 00 2a 02 c0 02 56 03   ..*.└.V.
$1323 ec 03 09 00 82 04 30 05   В...ѓ.0.
$132b de 05 8c 06 ff ff 3a 07   я.ї.  :.
$1333 00 08 c6 08 8c 09 09 00   ..к.ї...
$133b 52 0a e8 0a 7e 0b 5c 0c   R.У.~.\.
$1343 09 00 52 0a e8 0a 7e 0b   ..R.У.~.
$134b 5c 0c 09 00 52 0a e8 0a   \...R.У.
$1353 7e 0b 5c 0c 09 00 52 0a   ~.\...R.
$135b e8 0a 7e 0b 5c 0c 09 00   У.~.\...
$1363 3a 0d a0 0d 06 0e 9c 0e   :.а...ю.
$136b 09 00 3a 0d a0 0d 06 0e   ..:.а...
$1373 9c 0e 09 00 3a 0d a0 0d   ю...:.а.
$137b 06 0e 9c 0e 09 00 3a 0d   ..ю...:.
$1383 a0 0d 06 0e 9c 0e 09 00   а...ю...
$138b 3a 0d a0 0d 06 0e 9c 0e   :.а...ю.
$1393 09 00 3a 0d a0 0d 06 0e   ..:.а...
$139b 9c 0e 09 00 3a 0d a0 0d   ю...:.а.
$13a3 06 0e 9c 0e 09 00 3a 0d   ..ю...:.
$13ab a0 0d 06 0e 9c 0e ff ff   а...ю.  
$13b3 3a 0d a0 0d 06 0e 9c 0e   :.а...ю.
$13bb 09 00 02 00 8c 00 16 01   ....ї...
$13c3 a0 01 09 00 2a 02 c0 02   а...*.└.
$13cb 56 03 ec 03 09 00 82 04   V.В...ѓ.
$13d3 30 05 de 05 8c 06 e1 ff   0.я.ї.р 
$13db 3a 07 00 08 c6 08 8c 09   :...к.ї.
$13e3 4c 56 30 5f 44 41 54 41   LV0_DATA
$13eb 42 49 4e 8c 78 02 00 00   BINїx...
$13f3 00 18 01 00 00 22 02 00   ....."..
$13fb 00 40 03 00 00 48 04 00   .@...H..
$1403 00 53 05 00 00 8f 06 00   .S...Ј..
$140b 00 a5 07 00 00 b4 08 00   .Ц...┤..
$1413 00 be 09 00 00 e1 0a 00   .Й...р..
$141b 00 01 0c 00 00 12 0d 09   ........
$1423 6d 6d 6d 6d 6d 6d 6f 79   mmmmmmoy
$142b 62 00 63 00 52 00 d7 02   b.c.R.О.
$1433 d8 02 d9 02 c6 02 c7 02   п.┘.к.К.
$143b c9 02 ca 02 b8 05 a7 05   ╔.╩.И.Д.
$1443 a9 05 24 05 25 05 13 05   Е.$.%...
$144b 14 05 68 06 57 06 49 06   ..h.W.I.
$1453 1b 06 c4 09 c5 09 cd 09   ..─.┼.═.
$145b b4 09 b5 09 49 0a 38 0a   ┤.х.I.8.
$1463 39 0a 3b 0a b3 0b b4 0b   9.;.│.┤.
$146b b5 0b b6 0b b3 0c b4 0c   х.Х.│.┤.
$1473 a2 0c a3 0c 8a 0c 8b 0c   б.Б.і.І.
$147b 7a 0c 7b 0c 58 0c 49 0c   z.{.X.I.
$1483 34 0c 35 0c 24 0c 25 0c   4.5.$.%.
$148b 26 0c 27 0c c8 02 7d 00   &.'.╚.}.
$1493 5e 00 86 04 87 04 65 04   ^.є.Є.e.
$149b 03 05 07 a8 05 b2 0b 42   ...е.▓.B
$14a3 4f 4d 42 20 20 20 20 42   OMB    B
$14ab 49 4e 04 b4 14 c8 14 00   IN.┤.╚..
$14b3 00 09 00 02 00 2c 00 56   .....,.V
$14bb 00 a4 00 f5 ff f2 00 1c   .ц.ш Ы..
$14c3 01 46 01 94 01 09 00 e2   .F.ћ...Р
$14cb 01 0c 02 36 02 84 02 f5   ...6.ё.ш
$14d3 ff d2 02 fc 02 26 03 74    м.Ч.&.t
$14db 03                        .

$14dc 21 66 79   lxi h,$7966
$14df 01 58 0d   lxi b,$0d58
$14e2 11 1b 0c   lxi d,$0c1b
$14e5 3e 00      mvi a,$00
$14e7 cd 9e 01   call $019e
$14ea 21 02 58   lxi h,$5802
$14ed 01 64 43   lxi b,$4364
$14f0 11 da 0c   lxi d,$0cda
$14f3 3e 00      mvi a,$00
$14f5 cd 9e 01   call $019e
$14f8 c9         ret
$14f9 21 00 00   lxi h,$0000
$14fc 01 78 67   lxi b,$6778
$14ff 11 01 0d   lxi d,$0d01
$1502 3e 10      mvi a,$10
$1504 cd 9e 01   call $019e
$1507 21 78 33   lxi h,$3378
$150a 01 14 2c   lxi b,$2c14
$150d 11 c9 0d   lxi d,$0dc9
$1510 3e 10      mvi a,$10
$1512 cd 9e 01   call $019e
$1515 21 0c 49   lxi h,$490c
$1518 01 46 47   lxi b,$4746
$151b 11 96 0e   lxi d,$0e96
$151e 3e 10      mvi a,$10
$1520 cd 9e 01   call $019e
$1523 21 52 6c   lxi h,$6c52
$1526 01 70 44   lxi b,$4470
$1529 11 74 0f   lxi d,$0f74
$152c 3e 10      mvi a,$10
$152e cd 9e 01   call $019e
$1531 21 42 8e   lxi h,$8e42
$1534 01 6a 11   lxi b,$116a
$1537 11 e2 0f   lxi d,$0fe2
$153a 3e 10      mvi a,$10
$153c cd 9e 01   call $019e
$153f 21 00 00   lxi h,$0000
$1542 01 78 67   lxi b,$6778
$1545 11 53 10   lxi d,$1053
$1548 3e 14      mvi a,$14
$154a cd 9e 01   call $019e
$154d 21 78 33   lxi h,$3378
$1550 01 24 7c   lxi b,$7c24
$1553 11 1b 11   lxi d,$111b
$1556 3e 14      mvi a,$14
$1558 cd 9e 01   call $019e
$155b 21 1c 71   lxi h,$711c
$155e 01 0e 4e   lxi b,$4e0e
$1561 11 e7 11   lxi d,$11e7
$1564 3e 14      mvi a,$14
$1566 cd 9e 01   call $019e
$1569 21 aa 97   lxi h,$97aa
$156c 01 12 0d   lxi b,$0d12
$156f 11 5f 12   lxi d,$125f
$1572 3e 14      mvi a,$14
$1574 cd 9e 01   call $019e
$1577 21 00 00   lxi h,$0000
$157a 01 3c 0a   lxi b,$0a3c
$157d 11 97 12   lxi d,$1297
$1580 3e 18      mvi a,$18
$1582 cd 9e 01   call $019e
$1585 21 bc 04   lxi h,$04bc
$1588 01 20 09   lxi b,$0920
$158b 11 cf 12   lxi d,$12cf
$158e 3e 18      mvi a,$18
$1590 cd 9e 01   call $019e
$1593 21 dc 08   lxi h,$08dc
$1596 01 30 1f   lxi b,$1f30
$1599 11 f3 12   lxi d,$12f3
$159c 3e 18      mvi a,$18
$159e cd 9e 01   call $019e
$15a1 21 0c 18   lxi h,$180c
$15a4 01 36 1d   lxi b,$1d36
$15a7 11 e3 13   lxi d,$13e3
$15aa 3e 18      mvi a,$18
$15ac cd 9e 01   call $019e
$15af 21 42 26   lxi h,$2642
$15b2 01 40 08   lxi b,$0840
$15b5 11 a2 14   lxi d,$14a2
$15b8 3e 18      mvi a,$18
$15ba cd 9e 01   call $019e
$15bd c9         ret
$15be 21 2b 04   lxi h,$042b
$15c1 cd 45 01   call $0145
$15c4 cd cd 15   call $15cd
$15c7 cd ce 15   call $15ce
$15ca cd 82 02   call $0282
$15cd c9         ret
$15ce cd da 15   call $15da
$15d1 cd 7d 16   call $167d
$15d4 cd 7e 16   call $167e
$15d7 c3 d1 15   jmp $15d1
$15da f3         di
$15db 21 00 00   lxi h,$0000
$15de 11 ff 03   lxi d,$03ff
$15e1 af         xra a
$15e2 cd e8 02   call $02e8
$15e5 21 d4 0d   lxi h,$0dd4
$15e8 cd 76 03   call $0376
$15eb fb         ei
$15ec 76         hlt
$15ed f3         di
$15ee cd 83 09   call $0983
$15f1 cd dc 14   call $14dc
$15f4 cd f9 14   call $14f9
$15f7 11 a0 80   lxi d,$80a0
$15fa 01 7a 33   lxi b,$337a
$15fd 3e 10      mvi a,$10
$15ff cd 91 09   call $0991
$1602 11 02 58   lxi d,$5802
$1605 21 e5 0c   lxi h,$0ce5
$1608 cd 71 06   call $0671
$160b cd 85 06   call $0685
$160e 11 66 79   lxi d,$7966
$1611 0e 5a      mvi c,$5a
$1613 21 26 0c   lxi h,$0c26
$1616 cd 4f 03   call $034f
$1619 11 87 16   lxi d,$1687
$161c 01 64 00   lxi b,$0064
$161f 21 a0 00   lxi h,$00a0
$1622 cd b2 05   call $05b2
$1625 fb         ei
$1626 11 a1 0e   lxi d,$0ea1
$1629 21 0c 49   lxi h,$490c
$162c cd 89 0a   call $0a89
$162f 2a 52 0f   lhld $0f52
$1632 4d         mov c,l
$1633 44         mov b,h
$1634 11 a0 b0   lxi d,$b0a0
$1637 3e 10      mvi a,$10
$1639 cd c9 0a   call $0ac9
$163c cd 73 16   call $1673
$163f 2a 5c 0f   lhld $0f5c
$1642 4d         mov c,l
$1643 44         mov b,h
$1644 11 a0 b0   lxi d,$b0a0
$1647 3e 10      mvi a,$10
$1649 cd c9 0a   call $0ac9
$164c cd 73 16   call $1673
$164f 2a 66 0f   lhld $0f66
$1652 4d         mov c,l
$1653 44         mov b,h
$1654 11 a0 b0   lxi d,$b0a0
$1657 3e 10      mvi a,$10
$1659 cd c9 0a   call $0ac9
$165c cd 73 16   call $1673
$165f 2a 70 0f   lhld $0f70
$1662 4d         mov c,l
$1663 44         mov b,h
$1664 11 a0 b0   lxi d,$b0a0
$1667 3e 10      mvi a,$10
$1669 cd c9 0a   call $0ac9
$166c cd 73 16   call $1673
$166f c3 2f 16   jmp $162f
$1672 c9         ret
$1673 21 10 27   lxi h,$2710
$1676 2b         dcx h
$1677 7c         mov a,h
$1678 b5         ora l
$1679 c2 76 16   jnz $1676
$167c c9         ret
$167d c9         ret
$167e 2a 81 04   lhld $0481
$1681 23         inx h
$1682 22 81 04   shld $0481
$1685 76         hlt
$1686 c9         ret

$1687 53 54 41 52 54 20 47 41   START GA
$168f 4d 45 6a 4f 50 54 49 4f   MEjOPTIO
$1697 4e 53 6a 53 43 4f 52 45   NSjSCORE
$169f 53 6a 43 52 45 44 49 54   SjCREDIT
$16a7 53 00 00 00 00 00 00 00   S.......
$16af 00 00 00 00 00 00 00 00   ........
$16b7 00                        .